target datalayout = "e-m:e-p270:32:32-p271:32:32-p272:64:64-i64:64-i128:128-f80:128-n8:16:32:64-S128"
target triple = "x86_64-unknown-linux-gnu"

%struct.rtree_ctx_s = type { [16 x %struct.rtree_ctx_cache_elm_s], [8 x %struct.rtree_ctx_cache_elm_s] }
%struct.rtree_ctx_cache_elm_s = type { i64, ptr }
%struct.tsd_s = type { i8, i8, i64, i64, i64, i64, i64, i64, i64, i64, i64, i64, i64, i64, ptr, i64, i64, i64, ptr, ptr, %struct.ticker_geom_s, i8, %struct.tsd_binshards_s, %struct.tsd_link_t, i8, %struct.peak_s, %struct.activity_callback_thunk_s, %struct.tcache_slow_s, %struct.rtree_ctx_s, %struct.atomic_u8_t, i64, i64, i64, i64, %struct.tcache_s, %struct.witness_tsd_s }
%struct.ticker_geom_s = type { i32, i32 }
%struct.tsd_binshards_s = type { [39 x i8] }
%struct.tsd_link_t = type { ptr, ptr }
%struct.peak_s = type { i64, i64 }
%struct.activity_callback_thunk_s = type { ptr, ptr }
%struct.tcache_slow_s = type { %struct.anon.7, %struct.cache_bin_array_descriptor_s, ptr, i32, [39 x i8], [39 x i8], [39 x i8], ptr, ptr }
%struct.anon.7 = type { ptr, ptr }
%struct.cache_bin_array_descriptor_s = type { %struct.anon.8, ptr }
%struct.anon.8 = type { ptr, ptr }
%struct.atomic_u8_t = type { i8 }
%struct.tcache_s = type { ptr, [76 x %struct.cache_bin_s] }
%struct.cache_bin_s = type { ptr, %struct.cache_bin_stats_s, i16, i16, i16 }
%struct.cache_bin_stats_s = type { i64 }
%struct.witness_tsd_s = type { %struct.witness_list_t, i8 }
%struct.witness_list_t = type { ptr }
%struct.edata_s = type { i64, ptr, %union.anon.1, ptr, i64, %union.anon.2, %union.anon.5 }
%union.anon.1 = type { i64 }
%union.anon.2 = type { %union.anon.4 }
%union.anon.4 = type { %struct.edata_heap_link_t }
%struct.edata_heap_link_t = type { %struct.phn_link_s }
%struct.phn_link_s = type { ptr, ptr, ptr }
%union.anon.5 = type { %struct.slab_data_s }
%struct.slab_data_s = type { [8 x i64] }
%struct.rtree_contents_s = type { ptr, %struct.rtree_metadata_s }
%struct.rtree_metadata_s = type { i32, i32, i8, i8 }
%struct.emap_full_alloc_ctx_s = type { i32, i8, ptr }

; Function Attrs: nounwind uwtable
define internal i64 @edata_size_get(ptr noundef %edata) #0 {
entry:
  %edata.addr = alloca ptr, align 8
  store ptr %edata, ptr %edata.addr, align 8
  %0 = load ptr, ptr %edata.addr, align 8
  %1 = getelementptr inbounds %struct.edata_s, ptr %0, i32 0, i32 2
  %2 = load i64, ptr %1, align 8
  %and = and i64 %2, -4096
  ret i64 %and
}

; Function Attrs: nounwind uwtable
define internal ptr @edata_last_get(ptr noundef %edata) #0 {
entry:
  %edata.addr = alloca ptr, align 8
  store ptr %edata, ptr %edata.addr, align 8
  %0 = load ptr, ptr %edata.addr, align 8
  %call = call ptr @edata_base_get(ptr noundef %0)
  %1 = ptrtoint ptr %call to i64
  %2 = load ptr, ptr %edata.addr, align 8
  %call1 = call i64 @edata_size_get(ptr noundef %2)
  %add = add i64 %1, %call1
  %sub = sub i64 %add, 4096
  %3 = inttoptr i64 %sub to ptr
  ret ptr %3
}

; Function Attrs: nounwind uwtable
define internal ptr @edata_base_get(ptr noundef %edata) #0 {
entry:
  %edata.addr = alloca ptr, align 8
  store ptr %edata, ptr %edata.addr, align 8
  br label %do.body

do.body:                                          ; preds = %entry
  br label %do.end

do.end:                                           ; preds = %do.body
  %0 = load ptr, ptr %edata.addr, align 8
  %e_addr = getelementptr inbounds %struct.edata_s, ptr %0, i32 0, i32 1
  %1 = load ptr, ptr %e_addr, align 8
  %2 = ptrtoint ptr %1 to i64
  %and = and i64 %2, -4096
  %3 = inttoptr i64 %and to ptr
  ret ptr %3
}

; Function Attrs: nounwind uwtable
define hidden void @emap_do_assert_not_mapped(ptr noundef %tsdn, ptr noundef %emap, ptr noundef %edata) #0 {
entry:
  %tsd.addr.i55 = alloca ptr, align 8
  %tsd.addr.i54 = alloca ptr, align 8
  %tsd.addr.i.i49 = alloca ptr, align 8
  %tsd.addr.i50 = alloca ptr, align 8
  %state.i51 = alloca i8, align 1
  %tsd.addr.i.i = alloca ptr, align 8
  %tsd.addr.i47 = alloca ptr, align 8
  %state.i = alloca i8, align 1
  %tsd.addr.i45 = alloca ptr, align 8
  %tsd.addr.i = alloca ptr, align 8
  %tsdn.addr.i44 = alloca ptr, align 8
  %tsdn.addr.i43 = alloca ptr, align 8
  %tsdn.addr.i41 = alloca ptr, align 8
  %tsdn.addr.i40 = alloca ptr, align 8
  %retval.i.i6 = alloca ptr, align 8
  %tsdn.addr.i.i7 = alloca ptr, align 8
  %fallback.addr.i.i8 = alloca ptr, align 8
  %retval.i9 = alloca i1, align 1
  %tsdn.addr.i10 = alloca ptr, align 8
  %emap.addr.i11 = alloca ptr, align 8
  %ptr.addr.i12 = alloca ptr, align 8
  %full_alloc_ctx.addr.i13 = alloca ptr, align 8
  %rtree_ctx_fallback.i14 = alloca %struct.rtree_ctx_s, align 8
  %rtree_ctx.i15 = alloca ptr, align 8
  %contents.i16 = alloca %struct.rtree_contents_s, align 8
  %err.i17 = alloca i8, align 1
  %retval.i.i = alloca ptr, align 8
  %tsdn.addr.i.i = alloca ptr, align 8
  %fallback.addr.i.i = alloca ptr, align 8
  %retval.i = alloca i1, align 1
  %tsdn.addr.i = alloca ptr, align 8
  %emap.addr.i = alloca ptr, align 8
  %ptr.addr.i = alloca ptr, align 8
  %full_alloc_ctx.addr.i = alloca ptr, align 8
  %rtree_ctx_fallback.i = alloca %struct.rtree_ctx_s, align 8
  %rtree_ctx.i = alloca ptr, align 8
  %contents.i = alloca %struct.rtree_contents_s, align 8
  %err.i = alloca i8, align 1
  %tsdn.addr = alloca ptr, align 8
  %emap.addr = alloca ptr, align 8
  %edata.addr = alloca ptr, align 8
  %context1 = alloca %struct.emap_full_alloc_ctx_s, align 8
  %context2 = alloca %struct.emap_full_alloc_ctx_s, align 8
  store ptr %tsdn, ptr %tsdn.addr, align 8
  store ptr %emap, ptr %emap.addr, align 8
  store ptr %edata, ptr %edata.addr, align 8
  call void @llvm.memset.p0.i64(ptr align 8 %context1, i8 0, i64 16, i1 false)
  %0 = load ptr, ptr %tsdn.addr, align 8
  %1 = load ptr, ptr %emap.addr, align 8
  %2 = load ptr, ptr %edata.addr, align 8
  %call = call ptr @edata_base_get(ptr noundef %2)
  store ptr %0, ptr %tsdn.addr.i10, align 8
  store ptr %1, ptr %emap.addr.i11, align 8
  store ptr %call, ptr %ptr.addr.i12, align 8
  store ptr %context1, ptr %full_alloc_ctx.addr.i13, align 8
  %3 = load ptr, ptr %tsdn.addr.i10, align 8
  store ptr %3, ptr %tsdn.addr.i.i7, align 8
  store ptr %rtree_ctx_fallback.i14, ptr %fallback.addr.i.i8, align 8
  %4 = load ptr, ptr %tsdn.addr.i.i7, align 8
  store ptr %4, ptr %tsdn.addr.i40, align 8
  %5 = load ptr, ptr %tsdn.addr.i40, align 8
  %cmp.i = icmp eq ptr %5, null
  br i1 %cmp.i, label %if.then.i.i38, label %if.end.i.i22

if.then.i.i38:                                    ; preds = %entry
  %6 = load ptr, ptr %fallback.addr.i.i8, align 8
  call void @rtree_ctx_data_init(ptr noundef %6) #5
  %7 = load ptr, ptr %fallback.addr.i.i8, align 8
  store ptr %7, ptr %retval.i.i6, align 8
  br label %tsdn_rtree_ctx.exit.i25

if.end.i.i22:                                     ; preds = %entry
  %8 = load ptr, ptr %tsdn.addr.i.i7, align 8
  store ptr %8, ptr %tsdn.addr.i43, align 8
  %9 = load ptr, ptr %tsdn.addr.i43, align 8
  store ptr %9, ptr %tsd.addr.i, align 8
  %10 = load ptr, ptr %tsd.addr.i, align 8
  store ptr %10, ptr %tsd.addr.i50, align 8
  %11 = load ptr, ptr %tsd.addr.i50, align 8
  store ptr %11, ptr %tsd.addr.i.i49, align 8
  %12 = load ptr, ptr %tsd.addr.i.i49, align 8
  %state.i.i52 = getelementptr inbounds %struct.tsd_s, ptr %12, i32 0, i32 29
  %13 = load i8, ptr %state.i.i52, align 8
  store i8 %13, ptr %state.i51, align 1
  %14 = load ptr, ptr %tsd.addr.i50, align 8
  store ptr %14, ptr %tsd.addr.i54, align 8
  %15 = load ptr, ptr %tsd.addr.i54, align 8
  %cant_access_tsd_items_directly_use_a_getter_or_setter_rtree_ctx.i = getelementptr inbounds %struct.tsd_s, ptr %15, i32 0, i32 28
  store ptr %cant_access_tsd_items_directly_use_a_getter_or_setter_rtree_ctx.i, ptr %retval.i.i6, align 8
  br label %tsdn_rtree_ctx.exit.i25

tsdn_rtree_ctx.exit.i25:                          ; preds = %if.end.i.i22, %if.then.i.i38
  %16 = load ptr, ptr %retval.i.i6, align 8
  store ptr %16, ptr %rtree_ctx.i15, align 8
  %17 = load ptr, ptr %tsdn.addr.i10, align 8
  %18 = load ptr, ptr %emap.addr.i11, align 8
  %19 = load ptr, ptr %rtree_ctx.i15, align 8
  %20 = load ptr, ptr %ptr.addr.i12, align 8
  %21 = ptrtoint ptr %20 to i64
  %call1.i26 = call zeroext i1 @rtree_read_independent(ptr noundef %17, ptr noundef %18, ptr noundef %19, i64 noundef %21, ptr noundef %contents.i16)
  %frombool.i27 = zext i1 %call1.i26 to i8
  store i8 %frombool.i27, ptr %err.i17, align 1
  %22 = load i8, ptr %err.i17, align 1
  %tobool.i28 = trunc i8 %22 to i1
  br i1 %tobool.i28, label %if.then.i37, label %if.end.i29

if.then.i37:                                      ; preds = %tsdn_rtree_ctx.exit.i25
  store i1 true, ptr %retval.i9, align 1
  br label %emap_full_alloc_ctx_try_lookup.exit39

if.end.i29:                                       ; preds = %tsdn_rtree_ctx.exit.i25
  %23 = load ptr, ptr %contents.i16, align 8
  %24 = load ptr, ptr %full_alloc_ctx.addr.i13, align 8
  %edata2.i30 = getelementptr inbounds %struct.emap_full_alloc_ctx_s, ptr %24, i32 0, i32 2
  store ptr %23, ptr %edata2.i30, align 8
  %metadata.i31 = getelementptr inbounds %struct.rtree_contents_s, ptr %contents.i16, i32 0, i32 1
  %25 = load i32, ptr %metadata.i31, align 8
  %26 = load ptr, ptr %full_alloc_ctx.addr.i13, align 8
  store i32 %25, ptr %26, align 8
  %metadata4.i32 = getelementptr inbounds %struct.rtree_contents_s, ptr %contents.i16, i32 0, i32 1
  %slab.i33 = getelementptr inbounds %struct.rtree_metadata_s, ptr %metadata4.i32, i32 0, i32 3
  %27 = load i8, ptr %slab.i33, align 1
  %tobool5.i34 = trunc i8 %27 to i1
  %28 = load ptr, ptr %full_alloc_ctx.addr.i13, align 8
  %slab6.i35 = getelementptr inbounds %struct.emap_full_alloc_ctx_s, ptr %28, i32 0, i32 1
  %frombool7.i36 = zext i1 %tobool5.i34 to i8
  store i8 %frombool7.i36, ptr %slab6.i35, align 4
  store i1 false, ptr %retval.i9, align 1
  br label %emap_full_alloc_ctx_try_lookup.exit39

emap_full_alloc_ctx_try_lookup.exit39:            ; preds = %if.end.i29, %if.then.i37
  br label %do.body

do.body:                                          ; preds = %emap_full_alloc_ctx_try_lookup.exit39
  br label %do.end

do.end:                                           ; preds = %do.body
  call void @llvm.memset.p0.i64(ptr align 8 %context2, i8 0, i64 16, i1 false)
  %29 = load ptr, ptr %tsdn.addr, align 8
  %30 = load ptr, ptr %emap.addr, align 8
  %31 = load ptr, ptr %edata.addr, align 8
  %call2 = call ptr @edata_last_get(ptr noundef %31)
  store ptr %29, ptr %tsdn.addr.i, align 8
  store ptr %30, ptr %emap.addr.i, align 8
  store ptr %call2, ptr %ptr.addr.i, align 8
  store ptr %context2, ptr %full_alloc_ctx.addr.i, align 8
  %32 = load ptr, ptr %tsdn.addr.i, align 8
  store ptr %32, ptr %tsdn.addr.i.i, align 8
  store ptr %rtree_ctx_fallback.i, ptr %fallback.addr.i.i, align 8
  %33 = load ptr, ptr %tsdn.addr.i.i, align 8
  store ptr %33, ptr %tsdn.addr.i41, align 8
  %34 = load ptr, ptr %tsdn.addr.i41, align 8
  %cmp.i42 = icmp eq ptr %34, null
  br i1 %cmp.i42, label %if.then.i.i, label %if.end.i.i

if.then.i.i:                                      ; preds = %do.end
  %35 = load ptr, ptr %fallback.addr.i.i, align 8
  call void @rtree_ctx_data_init(ptr noundef %35) #5
  %36 = load ptr, ptr %fallback.addr.i.i, align 8
  store ptr %36, ptr %retval.i.i, align 8
  br label %tsdn_rtree_ctx.exit.i

if.end.i.i:                                       ; preds = %do.end
  %37 = load ptr, ptr %tsdn.addr.i.i, align 8
  store ptr %37, ptr %tsdn.addr.i44, align 8
  %38 = load ptr, ptr %tsdn.addr.i44, align 8
  store ptr %38, ptr %tsd.addr.i45, align 8
  %39 = load ptr, ptr %tsd.addr.i45, align 8
  store ptr %39, ptr %tsd.addr.i47, align 8
  %40 = load ptr, ptr %tsd.addr.i47, align 8
  store ptr %40, ptr %tsd.addr.i.i, align 8
  %41 = load ptr, ptr %tsd.addr.i.i, align 8
  %state.i.i = getelementptr inbounds %struct.tsd_s, ptr %41, i32 0, i32 29
  %42 = load i8, ptr %state.i.i, align 8
  store i8 %42, ptr %state.i, align 1
  %43 = load ptr, ptr %tsd.addr.i47, align 8
  store ptr %43, ptr %tsd.addr.i55, align 8
  %44 = load ptr, ptr %tsd.addr.i55, align 8
  %cant_access_tsd_items_directly_use_a_getter_or_setter_rtree_ctx.i56 = getelementptr inbounds %struct.tsd_s, ptr %44, i32 0, i32 28
  store ptr %cant_access_tsd_items_directly_use_a_getter_or_setter_rtree_ctx.i56, ptr %retval.i.i, align 8
  br label %tsdn_rtree_ctx.exit.i

tsdn_rtree_ctx.exit.i:                            ; preds = %if.end.i.i, %if.then.i.i
  %45 = load ptr, ptr %retval.i.i, align 8
  store ptr %45, ptr %rtree_ctx.i, align 8
  %46 = load ptr, ptr %tsdn.addr.i, align 8
  %47 = load ptr, ptr %emap.addr.i, align 8
  %48 = load ptr, ptr %rtree_ctx.i, align 8
  %49 = load ptr, ptr %ptr.addr.i, align 8
  %50 = ptrtoint ptr %49 to i64
  %call1.i = call zeroext i1 @rtree_read_independent(ptr noundef %46, ptr noundef %47, ptr noundef %48, i64 noundef %50, ptr noundef %contents.i)
  %frombool.i = zext i1 %call1.i to i8
  store i8 %frombool.i, ptr %err.i, align 1
  %51 = load i8, ptr %err.i, align 1
  %tobool.i = trunc i8 %51 to i1
  br i1 %tobool.i, label %if.then.i, label %if.end.i

if.then.i:                                        ; preds = %tsdn_rtree_ctx.exit.i
  store i1 true, ptr %retval.i, align 1
  br label %emap_full_alloc_ctx_try_lookup.exit

if.end.i:                                         ; preds = %tsdn_rtree_ctx.exit.i
  %52 = load ptr, ptr %contents.i, align 8
  %53 = load ptr, ptr %full_alloc_ctx.addr.i, align 8
  %edata2.i = getelementptr inbounds %struct.emap_full_alloc_ctx_s, ptr %53, i32 0, i32 2
  store ptr %52, ptr %edata2.i, align 8
  %metadata.i = getelementptr inbounds %struct.rtree_contents_s, ptr %contents.i, i32 0, i32 1
  %54 = load i32, ptr %metadata.i, align 8
  %55 = load ptr, ptr %full_alloc_ctx.addr.i, align 8
  store i32 %54, ptr %55, align 8
  %metadata4.i = getelementptr inbounds %struct.rtree_contents_s, ptr %contents.i, i32 0, i32 1
  %slab.i = getelementptr inbounds %struct.rtree_metadata_s, ptr %metadata4.i, i32 0, i32 3
  %56 = load i8, ptr %slab.i, align 1
  %tobool5.i = trunc i8 %56 to i1
  %57 = load ptr, ptr %full_alloc_ctx.addr.i, align 8
  %slab6.i = getelementptr inbounds %struct.emap_full_alloc_ctx_s, ptr %57, i32 0, i32 1
  %frombool7.i = zext i1 %tobool5.i to i8
  store i8 %frombool7.i, ptr %slab6.i, align 4
  store i1 false, ptr %retval.i, align 1
  br label %emap_full_alloc_ctx_try_lookup.exit

emap_full_alloc_ctx_try_lookup.exit:              ; preds = %if.end.i, %if.then.i
  br label %do.body4

do.body4:                                         ; preds = %emap_full_alloc_ctx_try_lookup.exit
  br label %do.end5

do.end5:                                          ; preds = %do.body4
  ret void
}