; Function Attrs: nounwind uwtable
define hidden void @emap_do_assert_not_mapped(ptr noundef %tsdn, ptr noundef %emap, ptr nocapture noundef readonly %edata) local_unnamed_addr #0 {
entry:
  %rtree_ctx_fallback.i14 = alloca %struct.rtree_ctx_s, align 8
  %contents.i16 = alloca %struct.rtree_contents_s, align 8
  %rtree_ctx_fallback.i = alloca %struct.rtree_ctx_s, align 8
  %contents.i = alloca %struct.rtree_contents_s, align 8
  %0 = getelementptr i8, ptr %edata, i64 8
  %edata.val = load ptr, ptr %0, align 8
  %1 = ptrtoint ptr %edata.val to i64
  %and.i = and i64 %1, -4096
  %cmp.i = icmp eq ptr %tsdn, null
  %2 = getelementptr i8, ptr %edata, i64 16
  br i1 %cmp.i, label %if.then.i.i, label %if.end.i.i.split

if.then.i.i:                                      ; preds = %entry
  call void @rtree_ctx_data_init(ptr noundef nonnull %rtree_ctx_fallback.i14) #4
  call fastcc void @rtree_read_independent(ptr noundef null, ptr noundef %emap, ptr noundef nonnull %rtree_ctx_fallback.i14, i64 noundef %and.i, ptr noundef nonnull %contents.i16)
  %edata.val2325 = load ptr, ptr %0, align 8
  %edata.val2426 = load i64, ptr %2, align 8
  %3 = ptrtoint ptr %edata.val2325 to i64
  %and.i.i27 = and i64 %3, -4096
  %and.i3.i28 = and i64 %edata.val2426, -4096
  %add.i29 = add i64 %and.i.i27, -4096
  %sub.i30 = add i64 %add.i29, %and.i3.i28
  call void @rtree_ctx_data_init(ptr noundef nonnull %rtree_ctx_fallback.i) #4
  call fastcc void @rtree_read_independent(ptr noundef null, ptr noundef %emap, ptr noundef nonnull %rtree_ctx_fallback.i, i64 noundef %sub.i30, ptr noundef nonnull %contents.i)
  br label %do.end5

if.end.i.i.split:                                 ; preds = %entry
  %cant_access_tsd_items_directly_use_a_getter_or_setter_rtree_ctx.i = getelementptr inbounds i8, ptr %tsdn, i64 448
  call fastcc void @rtree_read_independent(ptr noundef nonnull %tsdn, ptr noundef %emap, ptr noundef nonnull %cant_access_tsd_items_directly_use_a_getter_or_setter_rtree_ctx.i, i64 noundef %and.i, ptr noundef nonnull %contents.i16)
  %edata.val23 = load ptr, ptr %0, align 8
  %edata.val24 = load i64, ptr %2, align 8
  %4 = ptrtoint ptr %edata.val23 to i64
  %and.i.i = and i64 %4, -4096
  %and.i3.i = and i64 %edata.val24, -4096
  %add.i = add i64 %and.i.i, -4096
  %sub.i = add i64 %add.i, %and.i3.i
  call fastcc void @rtree_read_independent(ptr noundef nonnull %tsdn, ptr noundef %emap, ptr noundef nonnull %cant_access_tsd_items_directly_use_a_getter_or_setter_rtree_ctx.i, i64 noundef %sub.i, ptr noundef nonnull %contents.i)
  br label %do.end5

do.end5:                                          ; preds = %if.then.i.i, %if.end.i.i.split
  ret void
}